target datalayout = "e-m:e-p270:32:32-p271:32:32-p272:64:64-i64:64-i128:128-f80:128-n8:16:32:64-S128"
target triple = "x86_64-pc-linux-gnu"

%struct.AVPrimaryCoefficients = type { %struct.AVCIExy, %struct.AVCIExy, %struct.AVCIExy }
%struct.AVCIExy = type { %struct.AVRational, %struct.AVRational }
%struct.AVRational = type { i32, i32 }

; Function Attrs: inlinehint nounwind uwtable
define internal double @av_q2d(i64 %0) #3 {
  %2 = alloca %struct.AVRational, align 4
  store i64 %0, ptr %2, align 4
  %3 = getelementptr inbounds nuw %struct.AVRational, ptr %2, i32 0, i32 0
  %4 = load i32, ptr %3, align 4, !tbaa !23
  %5 = sitofp i32 %4 to double
  %6 = getelementptr inbounds nuw %struct.AVRational, ptr %2, i32 0, i32 1
  %7 = load i32, ptr %6, align 4, !tbaa !25
  %8 = sitofp i32 %7 to double
  %9 = fdiv nsz double %5, %8
  ret double %9
}

; Function Attrs: nounwind uwtable
define void @ff_fill_rgb2xyz_table(ptr noundef %0, ptr noundef %1, ptr noundef %2) #0 {
  %4 = alloca ptr, align 8
  %5 = alloca ptr, align 8
  %6 = alloca ptr, align 8
  %7 = alloca [3 x [3 x double]], align 16
  %8 = alloca double, align 8
  %9 = alloca double, align 8
  %10 = alloca double, align 8
  %11 = alloca double, align 8
  %12 = alloca double, align 8
  %13 = alloca double, align 8
  %14 = alloca double, align 8
  %15 = alloca double, align 8
  %16 = alloca double, align 8
  %17 = alloca double, align 8
  %18 = alloca double, align 8
  %19 = alloca double, align 8
  store ptr %0, ptr %4, align 8, !tbaa !19
  store ptr %1, ptr %5, align 8, !tbaa !21
  store ptr %2, ptr %6, align 8, !tbaa !4
  call void @llvm.lifetime.start.p0(i64 72, ptr %7) #7
  call void @llvm.lifetime.start.p0(i64 8, ptr %8) #7
  call void @llvm.lifetime.start.p0(i64 8, ptr %9) #7
  call void @llvm.lifetime.start.p0(i64 8, ptr %10) #7
  call void @llvm.lifetime.start.p0(i64 8, ptr %11) #7
  call void @llvm.lifetime.start.p0(i64 8, ptr %12) #7
  %20 = load ptr, ptr %4, align 8, !tbaa !19
  %21 = getelementptr inbounds nuw %struct.AVPrimaryCoefficients, ptr %20, i32 0, i32 0
  %22 = getelementptr inbounds nuw %struct.AVCIExy, ptr %21, i32 0, i32 0
  %23 = load i64, ptr %22, align 4
  %24 = call nsz double @av_q2d(i64 %23)
  store double %24, ptr %12, align 8, !tbaa !9
  call void @llvm.lifetime.start.p0(i64 8, ptr %13) #7
  %25 = load ptr, ptr %4, align 8, !tbaa !19
  %26 = getelementptr inbounds nuw %struct.AVPrimaryCoefficients, ptr %25, i32 0, i32 0
  %27 = getelementptr inbounds nuw %struct.AVCIExy, ptr %26, i32 0, i32 1
  %28 = load i64, ptr %27, align 4
  %29 = call nsz double @av_q2d(i64 %28)
  store double %29, ptr %13, align 8, !tbaa !9
  call void @llvm.lifetime.start.p0(i64 8, ptr %14) #7
  %30 = load ptr, ptr %4, align 8, !tbaa !19
  %31 = getelementptr inbounds nuw %struct.AVPrimaryCoefficients, ptr %30, i32 0, i32 1
  %32 = getelementptr inbounds nuw %struct.AVCIExy, ptr %31, i32 0, i32 0
  %33 = load i64, ptr %32, align 4
  %34 = call nsz double @av_q2d(i64 %33)
  store double %34, ptr %14, align 8, !tbaa !9
  call void @llvm.lifetime.start.p0(i64 8, ptr %15) #7
  %35 = load ptr, ptr %4, align 8, !tbaa !19
  %36 = getelementptr inbounds nuw %struct.AVPrimaryCoefficients, ptr %35, i32 0, i32 1
  %37 = getelementptr inbounds nuw %struct.AVCIExy, ptr %36, i32 0, i32 1
  %38 = load i64, ptr %37, align 4
  %39 = call nsz double @av_q2d(i64 %38)
  store double %39, ptr %15, align 8, !tbaa !9
  call void @llvm.lifetime.start.p0(i64 8, ptr %16) #7
  %40 = load ptr, ptr %4, align 8, !tbaa !19
  %41 = getelementptr inbounds nuw %struct.AVPrimaryCoefficients, ptr %40, i32 0, i32 2
  %42 = getelementptr inbounds nuw %struct.AVCIExy, ptr %41, i32 0, i32 0
  %43 = load i64, ptr %42, align 4
  %44 = call nsz double @av_q2d(i64 %43)
  store double %44, ptr %16, align 8, !tbaa !9
  call void @llvm.lifetime.start.p0(i64 8, ptr %17) #7
  %45 = load ptr, ptr %4, align 8, !tbaa !19
  %46 = getelementptr inbounds nuw %struct.AVPrimaryCoefficients, ptr %45, i32 0, i32 2
  %47 = getelementptr inbounds nuw %struct.AVCIExy, ptr %46, i32 0, i32 1
  %48 = load i64, ptr %47, align 4
  %49 = call nsz double @av_q2d(i64 %48)
  store double %49, ptr %17, align 8, !tbaa !9
  call void @llvm.lifetime.start.p0(i64 8, ptr %18) #7
  %50 = load ptr, ptr %5, align 8, !tbaa !21
  %51 = getelementptr inbounds nuw %struct.AVCIExy, ptr %50, i32 0, i32 0
  %52 = load i64, ptr %51, align 4
  %53 = call nsz double @av_q2d(i64 %52)
  store double %53, ptr %18, align 8, !tbaa !9
  call void @llvm.lifetime.start.p0(i64 8, ptr %19) #7
  %54 = load ptr, ptr %5, align 8, !tbaa !21
  %55 = getelementptr inbounds nuw %struct.AVCIExy, ptr %54, i32 0, i32 1
  %56 = load i64, ptr %55, align 4
  %57 = call nsz double @av_q2d(i64 %56)
  store double %57, ptr %19, align 8, !tbaa !9
  %58 = load double, ptr %12, align 8, !tbaa !9
  %59 = load double, ptr %13, align 8, !tbaa !9
  %60 = fdiv nsz double %58, %59
  %61 = load ptr, ptr %6, align 8, !tbaa !4
  %62 = getelementptr inbounds [3 x double], ptr %61, i64 0
  %63 = getelementptr inbounds [3 x double], ptr %62, i64 0, i64 0
  store double %60, ptr %63, align 8, !tbaa !9
  %64 = load double, ptr %14, align 8, !tbaa !9
  %65 = load double, ptr %15, align 8, !tbaa !9
  %66 = fdiv nsz double %64, %65
  %67 = load ptr, ptr %6, align 8, !tbaa !4
  %68 = getelementptr inbounds [3 x double], ptr %67, i64 0
  %69 = getelementptr inbounds [3 x double], ptr %68, i64 0, i64 1
  store double %66, ptr %69, align 8, !tbaa !9
  %70 = load double, ptr %16, align 8, !tbaa !9
  %71 = load double, ptr %17, align 8, !tbaa !9
  %72 = fdiv nsz double %70, %71
  %73 = load ptr, ptr %6, align 8, !tbaa !4
  %74 = getelementptr inbounds [3 x double], ptr %73, i64 0
  %75 = getelementptr inbounds [3 x double], ptr %74, i64 0, i64 2
  store double %72, ptr %75, align 8, !tbaa !9
  %76 = load ptr, ptr %6, align 8, !tbaa !4
  %77 = getelementptr inbounds [3 x double], ptr %76, i64 1
  %78 = getelementptr inbounds [3 x double], ptr %77, i64 0, i64 2
  store double 1.000000e+00, ptr %78, align 8, !tbaa !9
  %79 = load ptr, ptr %6, align 8, !tbaa !4
  %80 = getelementptr inbounds [3 x double], ptr %79, i64 1
  %81 = getelementptr inbounds [3 x double], ptr %80, i64 0, i64 1
  store double 1.000000e+00, ptr %81, align 8, !tbaa !9
  %82 = load ptr, ptr %6, align 8, !tbaa !4
  %83 = getelementptr inbounds [3 x double], ptr %82, i64 1
  %84 = getelementptr inbounds [3 x double], ptr %83, i64 0, i64 0
  store double 1.000000e+00, ptr %84, align 8, !tbaa !9
  %85 = load double, ptr %12, align 8, !tbaa !9
  %86 = fsub nsz double 1.000000e+00, %85
  %87 = load double, ptr %13, align 8, !tbaa !9
  %88 = fsub nsz double %86, %87
  %89 = load double, ptr %13, align 8, !tbaa !9
  %90 = fdiv nsz double %88, %89
  %91 = load ptr, ptr %6, align 8, !tbaa !4
  %92 = getelementptr inbounds [3 x double], ptr %91, i64 2
  %93 = getelementptr inbounds [3 x double], ptr %92, i64 0, i64 0
  store double %90, ptr %93, align 8, !tbaa !9
  %94 = load double, ptr %14, align 8, !tbaa !9
  %95 = fsub nsz double 1.000000e+00, %94
  %96 = load double, ptr %15, align 8, !tbaa !9
  %97 = fsub nsz double %95, %96
  %98 = load double, ptr %15, align 8, !tbaa !9
  %99 = fdiv nsz double %97, %98
  %100 = load ptr, ptr %6, align 8, !tbaa !4
  %101 = getelementptr inbounds [3 x double], ptr %100, i64 2
  %102 = getelementptr inbounds [3 x double], ptr %101, i64 0, i64 1
  store double %99, ptr %102, align 8, !tbaa !9
  %103 = load double, ptr %16, align 8, !tbaa !9
  %104 = fsub nsz double 1.000000e+00, %103
  %105 = load double, ptr %17, align 8, !tbaa !9
  %106 = fsub nsz double %104, %105
  %107 = load double, ptr %17, align 8, !tbaa !9
  %108 = fdiv nsz double %106, %107
  %109 = load ptr, ptr %6, align 8, !tbaa !4
  %110 = getelementptr inbounds [3 x double], ptr %109, i64 2
  %111 = getelementptr inbounds [3 x double], ptr %110, i64 0, i64 2
  store double %108, ptr %111, align 8, !tbaa !9
  %112 = load ptr, ptr %6, align 8, !tbaa !4
  %113 = getelementptr inbounds [3 x [3 x double]], ptr %7, i64 0, i64 0
  call void @ff_matrix_invert_3x3(ptr noundef %112, ptr noundef %113)
  %114 = load double, ptr %18, align 8, !tbaa !9
  %115 = fsub nsz double 1.000000e+00, %114
  %116 = load double, ptr %19, align 8, !tbaa !9
  %117 = fsub nsz double %115, %116
  store double %117, ptr %11, align 8, !tbaa !9
  %118 = getelementptr inbounds [3 x [3 x double]], ptr %7, i64 0, i64 0
  %119 = getelementptr inbounds [3 x double], ptr %118, i64 0, i64 0
  %120 = load double, ptr %119, align 16, !tbaa !9
  %121 = load double, ptr %18, align 8, !tbaa !9
  %122 = getelementptr inbounds [3 x [3 x double]], ptr %7, i64 0, i64 0
  %123 = getelementptr inbounds [3 x double], ptr %122, i64 0, i64 1
  %124 = load double, ptr %123, align 8, !tbaa !9
  %125 = load double, ptr %19, align 8, !tbaa !9
  %126 = fmul nsz double %124, %125
  %127 = call nsz double @llvm.fmuladd.f64(double %120, double %121, double %126)
  %128 = getelementptr inbounds [3 x [3 x double]], ptr %7, i64 0, i64 0
  %129 = getelementptr inbounds [3 x double], ptr %128, i64 0, i64 2
  %130 = load double, ptr %129, align 16, !tbaa !9
  %131 = load double, ptr %11, align 8, !tbaa !9
  %132 = call nsz double @llvm.fmuladd.f64(double %130, double %131, double %127)
  store double %132, ptr %8, align 8, !tbaa !9
  %133 = getelementptr inbounds [3 x [3 x double]], ptr %7, i64 0, i64 1
  %134 = getelementptr inbounds [3 x double], ptr %133, i64 0, i64 0
  %135 = load double, ptr %134, align 8, !tbaa !9
  %136 = load double, ptr %18, align 8, !tbaa !9
  %137 = getelementptr inbounds [3 x [3 x double]], ptr %7, i64 0, i64 1
  %138 = getelementptr inbounds [3 x double], ptr %137, i64 0, i64 1
  %139 = load double, ptr %138, align 8, !tbaa !9
  %140 = load double, ptr %19, align 8, !tbaa !9
  %141 = fmul nsz double %139, %140
  %142 = call nsz double @llvm.fmuladd.f64(double %135, double %136, double %141)
  %143 = getelementptr inbounds [3 x [3 x double]], ptr %7, i64 0, i64 1
  %144 = getelementptr inbounds [3 x double], ptr %143, i64 0, i64 2
  %145 = load double, ptr %144, align 8, !tbaa !9
  %146 = load double, ptr %11, align 8, !tbaa !9
  %147 = call nsz double @llvm.fmuladd.f64(double %145, double %146, double %142)
  store double %147, ptr %9, align 8, !tbaa !9
  %148 = getelementptr inbounds [3 x [3 x double]], ptr %7, i64 0, i64 2
  %149 = getelementptr inbounds [3 x double], ptr %148, i64 0, i64 0
  %150 = load double, ptr %149, align 16, !tbaa !9
  %151 = load double, ptr %18, align 8, !tbaa !9
  %152 = getelementptr inbounds [3 x [3 x double]], ptr %7, i64 0, i64 2
  %153 = getelementptr inbounds [3 x double], ptr %152, i64 0, i64 1
  %154 = load double, ptr %153, align 8, !tbaa !9
  %155 = load double, ptr %19, align 8, !tbaa !9
  %156 = fmul nsz double %154, %155
  %157 = call nsz double @llvm.fmuladd.f64(double %150, double %151, double %156)
  %158 = getelementptr inbounds [3 x [3 x double]], ptr %7, i64 0, i64 2
  %159 = getelementptr inbounds [3 x double], ptr %158, i64 0, i64 2
  %160 = load double, ptr %159, align 16, !tbaa !9
  %161 = load double, ptr %11, align 8, !tbaa !9
  %162 = call nsz double @llvm.fmuladd.f64(double %160, double %161, double %157)
  store double %162, ptr %10, align 8, !tbaa !9
  %163 = load double, ptr %8, align 8, !tbaa !9
  %164 = load ptr, ptr %6, align 8, !tbaa !4
  %165 = getelementptr inbounds [3 x double], ptr %164, i64 0
  %166 = getelementptr inbounds [3 x double], ptr %165, i64 0, i64 0
  %167 = load double, ptr %166, align 8, !tbaa !9
  %168 = fmul nsz double %167, %163
  store double %168, ptr %166, align 8, !tbaa !9
  %169 = load double, ptr %9, align 8, !tbaa !9
  %170 = load ptr, ptr %6, align 8, !tbaa !4
  %171 = getelementptr inbounds [3 x double], ptr %170, i64 0
  %172 = getelementptr inbounds [3 x double], ptr %171, i64 0, i64 1
  %173 = load double, ptr %172, align 8, !tbaa !9
  %174 = fmul nsz double %173, %169
  store double %174, ptr %172, align 8, !tbaa !9
  %175 = load double, ptr %10, align 8, !tbaa !9
  %176 = load ptr, ptr %6, align 8, !tbaa !4
  %177 = getelementptr inbounds [3 x double], ptr %176, i64 0
  %178 = getelementptr inbounds [3 x double], ptr %177, i64 0, i64 2
  %179 = load double, ptr %178, align 8, !tbaa !9
  %180 = fmul nsz double %179, %175
  store double %180, ptr %178, align 8, !tbaa !9
  %181 = load double, ptr %8, align 8, !tbaa !9
  %182 = load ptr, ptr %6, align 8, !tbaa !4
  %183 = getelementptr inbounds [3 x double], ptr %182, i64 1
  %184 = getelementptr inbounds [3 x double], ptr %183, i64 0, i64 0
  %185 = load double, ptr %184, align 8, !tbaa !9
  %186 = fmul nsz double %185, %181
  store double %186, ptr %184, align 8, !tbaa !9
  %187 = load double, ptr %9, align 8, !tbaa !9
  %188 = load ptr, ptr %6, align 8, !tbaa !4
  %189 = getelementptr inbounds [3 x double], ptr %188, i64 1
  %190 = getelementptr inbounds [3 x double], ptr %189, i64 0, i64 1
  %191 = load double, ptr %190, align 8, !tbaa !9
  %192 = fmul nsz double %191, %187
  store double %192, ptr %190, align 8, !tbaa !9
  %193 = load double, ptr %10, align 8, !tbaa !9
  %194 = load ptr, ptr %6, align 8, !tbaa !4
  %195 = getelementptr inbounds [3 x double], ptr %194, i64 1
  %196 = getelementptr inbounds [3 x double], ptr %195, i64 0, i64 2
  %197 = load double, ptr %196, align 8, !tbaa !9
  %198 = fmul nsz double %197, %193
  store double %198, ptr %196, align 8, !tbaa !9
  %199 = load double, ptr %8, align 8, !tbaa !9
  %200 = load ptr, ptr %6, align 8, !tbaa !4
  %201 = getelementptr inbounds [3 x double], ptr %200, i64 2
  %202 = getelementptr inbounds [3 x double], ptr %201, i64 0, i64 0
  %203 = load double, ptr %202, align 8, !tbaa !9
  %204 = fmul nsz double %203, %199
  store double %204, ptr %202, align 8, !tbaa !9
  %205 = load double, ptr %9, align 8, !tbaa !9
  %206 = load ptr, ptr %6, align 8, !tbaa !4
  %207 = getelementptr inbounds [3 x double], ptr %206, i64 2
  %208 = getelementptr inbounds [3 x double], ptr %207, i64 0, i64 1
  %209 = load double, ptr %208, align 8, !tbaa !9
  %210 = fmul nsz double %209, %205
  store double %210, ptr %208, align 8, !tbaa !9
  %211 = load double, ptr %10, align 8, !tbaa !9
  %212 = load ptr, ptr %6, align 8, !tbaa !4
  %213 = getelementptr inbounds [3 x double], ptr %212, i64 2
  %214 = getelementptr inbounds [3 x double], ptr %213, i64 0, i64 2
  %215 = load double, ptr %214, align 8, !tbaa !9
  %216 = fmul nsz double %215, %211
  store double %216, ptr %214, align 8, !tbaa !9
  call void @llvm.lifetime.end.p0(i64 8, ptr %19) #7
  call void @llvm.lifetime.end.p0(i64 8, ptr %18) #7
  call void @llvm.lifetime.end.p0(i64 8, ptr %17) #7
  call void @llvm.lifetime.end.p0(i64 8, ptr %16) #7
  call void @llvm.lifetime.end.p0(i64 8, ptr %15) #7
  call void @llvm.lifetime.end.p0(i64 8, ptr %14) #7
  call void @llvm.lifetime.end.p0(i64 8, ptr %13) #7
  call void @llvm.lifetime.end.p0(i64 8, ptr %12) #7
  call void @llvm.lifetime.end.p0(i64 8, ptr %11) #7
  call void @llvm.lifetime.end.p0(i64 8, ptr %10) #7
  call void @llvm.lifetime.end.p0(i64 8, ptr %9) #7
  call void @llvm.lifetime.end.p0(i64 8, ptr %8) #7
  call void @llvm.lifetime.end.p0(i64 72, ptr %7) #7
  ret void
}