; Function Attrs: nofree norecurse nosync nounwind memory(argmem: readwrite) uwtable
define void @ff_fill_rgb2xyz_table(ptr noundef readonly captures(none) %0, ptr noundef readonly captures(none) %1, ptr noundef captures(none) initializes((0, 72)) %2) local_unnamed_addr #0 {
  %4 = alloca [3 x [3 x double]], align 16
  call void @llvm.lifetime.start.p0(i64 72, ptr nonnull %4) #8
  %5 = load i64, ptr %0, align 4
  %.sroa.0.0.extract.trunc.i = trunc i64 %5 to i32
  %.sroa.2.0.extract.shift.i = lshr i64 %5, 32
  %.sroa.2.0.extract.trunc.i = trunc nuw i64 %.sroa.2.0.extract.shift.i to i32
  %6 = sitofp i32 %.sroa.0.0.extract.trunc.i to double
  %7 = sitofp i32 %.sroa.2.0.extract.trunc.i to double
  %8 = fdiv nsz double %6, %7
  %9 = getelementptr inbounds nuw i8, ptr %0, i64 8
  %10 = load i64, ptr %9, align 4
  %.sroa.0.0.extract.trunc.i62 = trunc i64 %10 to i32
  %.sroa.2.0.extract.shift.i63 = lshr i64 %10, 32
  %.sroa.2.0.extract.trunc.i64 = trunc nuw i64 %.sroa.2.0.extract.shift.i63 to i32
  %11 = sitofp i32 %.sroa.0.0.extract.trunc.i62 to double
  %12 = sitofp i32 %.sroa.2.0.extract.trunc.i64 to double
  %13 = fdiv nsz double %11, %12
  %14 = getelementptr inbounds nuw i8, ptr %0, i64 16
  %15 = load i64, ptr %14, align 4
  %.sroa.0.0.extract.trunc.i65 = trunc i64 %15 to i32
  %.sroa.2.0.extract.shift.i66 = lshr i64 %15, 32
  %.sroa.2.0.extract.trunc.i67 = trunc nuw i64 %.sroa.2.0.extract.shift.i66 to i32
  %16 = sitofp i32 %.sroa.0.0.extract.trunc.i65 to double
  %17 = sitofp i32 %.sroa.2.0.extract.trunc.i67 to double
  %18 = fdiv nsz double %16, %17
  %19 = getelementptr inbounds nuw i8, ptr %0, i64 24
  %20 = load i64, ptr %19, align 4
  %.sroa.0.0.extract.trunc.i68 = trunc i64 %20 to i32
  %.sroa.2.0.extract.shift.i69 = lshr i64 %20, 32
  %.sroa.2.0.extract.trunc.i70 = trunc nuw i64 %.sroa.2.0.extract.shift.i69 to i32
  %21 = sitofp i32 %.sroa.0.0.extract.trunc.i68 to double
  %22 = sitofp i32 %.sroa.2.0.extract.trunc.i70 to double
  %23 = fdiv nsz double %21, %22
  %24 = getelementptr inbounds nuw i8, ptr %0, i64 32
  %25 = load i64, ptr %24, align 4
  %.sroa.0.0.extract.trunc.i71 = trunc i64 %25 to i32
  %.sroa.2.0.extract.shift.i72 = lshr i64 %25, 32
  %.sroa.2.0.extract.trunc.i73 = trunc nuw i64 %.sroa.2.0.extract.shift.i72 to i32
  %26 = sitofp i32 %.sroa.0.0.extract.trunc.i71 to double
  %27 = sitofp i32 %.sroa.2.0.extract.trunc.i73 to double
  %28 = fdiv nsz double %26, %27
  %29 = getelementptr inbounds nuw i8, ptr %0, i64 40
  %30 = load i64, ptr %29, align 4
  %.sroa.0.0.extract.trunc.i74 = trunc i64 %30 to i32
  %.sroa.2.0.extract.shift.i75 = lshr i64 %30, 32
  %.sroa.2.0.extract.trunc.i76 = trunc nuw i64 %.sroa.2.0.extract.shift.i75 to i32
  %31 = sitofp i32 %.sroa.0.0.extract.trunc.i74 to double
  %32 = sitofp i32 %.sroa.2.0.extract.trunc.i76 to double
  %33 = fdiv nsz double %31, %32
  %34 = load i64, ptr %1, align 4
  %.sroa.0.0.extract.trunc.i77 = trunc i64 %34 to i32
  %.sroa.2.0.extract.shift.i78 = lshr i64 %34, 32
  %.sroa.2.0.extract.trunc.i79 = trunc nuw i64 %.sroa.2.0.extract.shift.i78 to i32
  %35 = sitofp i32 %.sroa.0.0.extract.trunc.i77 to double
  %36 = sitofp i32 %.sroa.2.0.extract.trunc.i79 to double
  %37 = fdiv nsz double %35, %36
  %38 = getelementptr inbounds nuw i8, ptr %1, i64 8
  %39 = load i64, ptr %38, align 4
  %.sroa.0.0.extract.trunc.i80 = trunc i64 %39 to i32
  %.sroa.2.0.extract.shift.i81 = lshr i64 %39, 32
  %.sroa.2.0.extract.trunc.i82 = trunc nuw i64 %.sroa.2.0.extract.shift.i81 to i32
  %40 = sitofp i32 %.sroa.0.0.extract.trunc.i80 to double
  %41 = sitofp i32 %.sroa.2.0.extract.trunc.i82 to double
  %42 = fdiv nsz double %40, %41
  %43 = fdiv nsz double %8, %13
  store double %43, ptr %2, align 8, !tbaa !4
  %44 = fdiv nsz double %18, %23
  %45 = getelementptr inbounds nuw i8, ptr %2, i64 8
  store double %44, ptr %45, align 8, !tbaa !4
  %46 = fdiv nsz double %28, %33
  %47 = getelementptr inbounds nuw i8, ptr %2, i64 16
  store double %46, ptr %47, align 8, !tbaa !4
  %48 = getelementptr inbounds nuw i8, ptr %2, i64 24
  %49 = getelementptr inbounds nuw i8, ptr %2, i64 40
  store double 1.000000e+00, ptr %49, align 8, !tbaa !4
  %50 = getelementptr inbounds nuw i8, ptr %2, i64 32
  store double 1.000000e+00, ptr %50, align 8, !tbaa !4
  store double 1.000000e+00, ptr %48, align 8, !tbaa !4
  %51 = fsub nsz double 1.000000e+00, %8
  %52 = fsub nsz double %51, %13
  %53 = fdiv nsz double %52, %13
  %54 = getelementptr inbounds nuw i8, ptr %2, i64 48
  store double %53, ptr %54, align 8, !tbaa !4
  %55 = fsub nsz double 1.000000e+00, %18
  %56 = fsub nsz double %55, %23
  %57 = fdiv nsz double %56, %23
  %58 = getelementptr inbounds nuw i8, ptr %2, i64 56
  store double %57, ptr %58, align 8, !tbaa !4
  %59 = fsub nsz double 1.000000e+00, %28
  %60 = fsub nsz double %59, %33
  %61 = fdiv nsz double %60, %33
  %62 = getelementptr inbounds nuw i8, ptr %2, i64 64
  store double %61, ptr %62, align 8, !tbaa !4
  call void @ff_matrix_invert_3x3(ptr noundef nonnull %2, ptr noundef nonnull %4)
  %63 = fsub nsz double 1.000000e+00, %37
  %64 = fsub nsz double %63, %42
  %65 = load double, ptr %4, align 16, !tbaa !4
  %66 = getelementptr inbounds nuw i8, ptr %4, i64 8
  %67 = load double, ptr %66, align 8, !tbaa !4
  %68 = fmul nsz double %42, %67
  %69 = tail call nsz double @llvm.fmuladd.f64(double %65, double %37, double %68)
  %70 = getelementptr inbounds nuw i8, ptr %4, i64 16
  %71 = load double, ptr %70, align 16, !tbaa !4
  %72 = tail call nsz double @llvm.fmuladd.f64(double %71, double %64, double %69)
  %73 = getelementptr inbounds nuw i8, ptr %4, i64 24
  %74 = load double, ptr %73, align 8, !tbaa !4
  %75 = getelementptr inbounds nuw i8, ptr %4, i64 32
  %76 = load double, ptr %75, align 16, !tbaa !4
  %77 = fmul nsz double %42, %76
  %78 = tail call nsz double @llvm.fmuladd.f64(double %74, double %37, double %77)
  %79 = getelementptr inbounds nuw i8, ptr %4, i64 40
  %80 = load double, ptr %79, align 8, !tbaa !4
  %81 = tail call nsz double @llvm.fmuladd.f64(double %80, double %64, double %78)
  %82 = getelementptr inbounds nuw i8, ptr %4, i64 48
  %83 = load double, ptr %82, align 16, !tbaa !4
  %84 = getelementptr inbounds nuw i8, ptr %4, i64 56
  %85 = load double, ptr %84, align 8, !tbaa !4
  %86 = fmul nsz double %42, %85
  %87 = tail call nsz double @llvm.fmuladd.f64(double %83, double %37, double %86)
  %88 = getelementptr inbounds nuw i8, ptr %4, i64 64
  %89 = load double, ptr %88, align 16, !tbaa !4
  %90 = tail call nsz double @llvm.fmuladd.f64(double %89, double %64, double %87)
  %91 = fmul nsz double %43, %72
  store double %91, ptr %2, align 8, !tbaa !4
  %92 = fmul nsz double %44, %81
  store double %92, ptr %45, align 8, !tbaa !4
  %93 = fmul nsz double %46, %90
  store double %93, ptr %47, align 8, !tbaa !4
  store double %72, ptr %48, align 8, !tbaa !4
  store double %81, ptr %50, align 8, !tbaa !4
  store double %90, ptr %49, align 8, !tbaa !4
  %94 = fmul nsz double %53, %72
  store double %94, ptr %54, align 8, !tbaa !4
  %95 = fmul nsz double %57, %81
  store double %95, ptr %58, align 8, !tbaa !4
  %96 = fmul nsz double %61, %90
  store double %96, ptr %62, align 8, !tbaa !4
  call void @llvm.lifetime.end.p0(i64 72, ptr nonnull %4) #8
  ret void
}